target datalayout = "e-m:e-p270:32:32-p271:32:32-p272:64:64-i64:64-i128:128-f80:128-n8:16:32:64-S128"
target triple = "x86_64-pc-linux-gnu"

%struct.AVFormatContext = type { ptr, ptr, ptr, ptr, ptr, i32, i32, ptr, i32, ptr, i32, ptr, ptr, i64, i64, i64, i32, i32, i32, i64, i64, ptr, i32, i32, ptr, i32, i32, i32, i32, ptr, i64, i32, i32, %struct.AVIOInterruptCB, i32, i32, i32, i32, i64, i32, i32, i32, i32, i32, i32, i32, i32, i32, i32, i32, i32, i64, i32, i32, i32, i32, i32, ptr, ptr, ptr, ptr, i32, ptr, ptr, ptr, ptr, i32, ptr, ptr, i64, ptr, ptr, ptr, i64 }
%struct.AVIOInterruptCB = type { ptr, ptr }
%struct.AVPacket = type { ptr, i64, i64, ptr, i32, i32, i32, ptr, i32, i64, i64, ptr, ptr, %struct.AVRational }
%struct.AVRational = type { i32, i32 }
%struct.OSSAudioData = type { ptr, i32, i32, i32, i32, i32, i32, i8, [4096 x i8], i32 }
%struct.audio_buf_info = type { i32, i32, i32, i32 }

; Function Attrs: nounwind uwtable
define internal i32 @audio_read_packet(ptr noundef %0, ptr noundef %1) #0 {
  %3 = alloca i32, align 4
  %4 = alloca ptr, align 8
  %5 = alloca ptr, align 8
  %6 = alloca ptr, align 8
  %7 = alloca i32, align 4
  %8 = alloca i32, align 4
  %9 = alloca i64, align 8
  %10 = alloca %struct.audio_buf_info, align 4
  %11 = alloca i32, align 4
  %12 = alloca i32, align 4
  %13 = alloca ptr, align 8
  store ptr %0, ptr %4, align 8, !tbaa !4
  store ptr %1, ptr %5, align 8, !tbaa !49
  call void @llvm.lifetime.start.p0(i64 8, ptr %6) #5
  %14 = load ptr, ptr %4, align 8, !tbaa !4
  %15 = getelementptr inbounds nuw %struct.AVFormatContext, ptr %14, i32 0, i32 3
  %16 = load ptr, ptr %15, align 8, !tbaa !9
  store ptr %16, ptr %6, align 8, !tbaa !26
  call void @llvm.lifetime.start.p0(i64 4, ptr %7) #5
  call void @llvm.lifetime.start.p0(i64 4, ptr %8) #5
  call void @llvm.lifetime.start.p0(i64 8, ptr %9) #5
  call void @llvm.lifetime.start.p0(i64 16, ptr %10) #5
  %17 = load ptr, ptr %5, align 8, !tbaa !49
  %18 = load ptr, ptr %6, align 8, !tbaa !26
  %19 = getelementptr inbounds nuw %struct.OSSAudioData, ptr %18, i32 0, i32 5
  %20 = load i32, ptr %19, align 8, !tbaa !51
  %21 = call i32 @av_new_packet(ptr noundef %17, i32 noundef %20)
  store i32 %21, ptr %7, align 4, !tbaa !31
  %22 = icmp slt i32 %21, 0
  br i1 %22, label %23, label %25

23:                                               ; preds = %2
  %24 = load i32, ptr %7, align 4, !tbaa !31
  store i32 %24, ptr %3, align 4
  store i32 1, ptr %11, align 4
  br label %122

25:                                               ; preds = %2
  %26 = load ptr, ptr %6, align 8, !tbaa !26
  %27 = getelementptr inbounds nuw %struct.OSSAudioData, ptr %26, i32 0, i32 1
  %28 = load i32, ptr %27, align 8, !tbaa !52
  %29 = load ptr, ptr %5, align 8, !tbaa !49
  %30 = getelementptr inbounds nuw %struct.AVPacket, ptr %29, i32 0, i32 3
  %31 = load ptr, ptr %30, align 8, !tbaa !53
  %32 = load ptr, ptr %5, align 8, !tbaa !49
  %33 = getelementptr inbounds nuw %struct.AVPacket, ptr %32, i32 0, i32 4
  %34 = load i32, ptr %33, align 8, !tbaa !54
  %35 = sext i32 %34 to i64
  %36 = call i64 @read(i32 noundef %28, ptr noundef %31, i64 noundef %35)
  %37 = trunc i64 %36 to i32
  store i32 %37, ptr %7, align 4, !tbaa !31
  %38 = load i32, ptr %7, align 4, !tbaa !31
  %39 = icmp sle i32 %38, 0
  br i1 %39, label %40, label %51

40:                                               ; preds = %25
  %41 = load ptr, ptr %5, align 8, !tbaa !49
  call void @av_packet_unref(ptr noundef %41)
  %42 = load ptr, ptr %5, align 8, !tbaa !49
  %43 = getelementptr inbounds nuw %struct.AVPacket, ptr %42, i32 0, i32 4
  store i32 0, ptr %43, align 8, !tbaa !54
  %44 = load i32, ptr %7, align 4, !tbaa !31
  %45 = icmp slt i32 %44, 0
  br i1 %45, label %46, label %50

46:                                               ; preds = %40
  %47 = call ptr @__errno_location() #6
  %48 = load i32, ptr %47, align 4, !tbaa !31
  %49 = sub nsw i32 0, %48
  store i32 %49, ptr %3, align 4
  store i32 1, ptr %11, align 4
  br label %122

50:                                               ; preds = %40
  store i32 -541478725, ptr %3, align 4
  store i32 1, ptr %11, align 4
  br label %122

51:                                               ; preds = %25
  %52 = load i32, ptr %7, align 4, !tbaa !31
  %53 = load ptr, ptr %5, align 8, !tbaa !49
  %54 = getelementptr inbounds nuw %struct.AVPacket, ptr %53, i32 0, i32 4
  store i32 %52, ptr %54, align 8, !tbaa !54
  %55 = call i64 @av_gettime()
  store i64 %55, ptr %9, align 8, !tbaa !55
  %56 = load i32, ptr %7, align 4, !tbaa !31
  store i32 %56, ptr %8, align 4, !tbaa !31
  %57 = load ptr, ptr %6, align 8, !tbaa !26
  %58 = getelementptr inbounds nuw %struct.OSSAudioData, ptr %57, i32 0, i32 1
  %59 = load i32, ptr %58, align 8, !tbaa !52
  %60 = call i32 (i32, i64, ...) @ioctl(i32 noundef %59, i64 noundef 2148552717, ptr noundef %10) #5
  %61 = icmp eq i32 %60, 0
  br i1 %61, label %62, label %67

62:                                               ; preds = %51
  %63 = getelementptr inbounds nuw %struct.audio_buf_info, ptr %10, i32 0, i32 3
  %64 = load i32, ptr %63, align 4, !tbaa !56
  %65 = load i32, ptr %8, align 4, !tbaa !31
  %66 = add nsw i32 %65, %64
  store i32 %66, ptr %8, align 4, !tbaa !31
  br label %67

67:                                               ; preds = %62, %51
  %68 = load i32, ptr %8, align 4, !tbaa !31
  %69 = sext i32 %68 to i64
  %70 = mul nsw i64 %69, 1000000
  %71 = load ptr, ptr %6, align 8, !tbaa !26
  %72 = getelementptr inbounds nuw %struct.OSSAudioData, ptr %71, i32 0, i32 2
  %73 = load i32, ptr %72, align 4, !tbaa !45
  %74 = load ptr, ptr %6, align 8, !tbaa !26
  %75 = getelementptr inbounds nuw %struct.OSSAudioData, ptr %74, i32 0, i32 3
  %76 = load i32, ptr %75, align 8, !tbaa !58
  %77 = mul nsw i32 %73, %76
  %78 = load ptr, ptr %6, align 8, !tbaa !26
  %79 = getelementptr inbounds nuw %struct.OSSAudioData, ptr %78, i32 0, i32 4
  %80 = load i32, ptr %79, align 4, !tbaa !47
  %81 = mul nsw i32 %77, %80
  %82 = sext i32 %81 to i64
  %83 = sdiv i64 %70, %82
  %84 = load i64, ptr %9, align 8, !tbaa !55
  %85 = sub nsw i64 %84, %83
  store i64 %85, ptr %9, align 8, !tbaa !55
  %86 = load i64, ptr %9, align 8, !tbaa !55
  %87 = load ptr, ptr %5, align 8, !tbaa !49
  %88 = getelementptr inbounds nuw %struct.AVPacket, ptr %87, i32 0, i32 1
  store i64 %86, ptr %88, align 8, !tbaa !59
  %89 = load ptr, ptr %6, align 8, !tbaa !26
  %90 = getelementptr inbounds nuw %struct.OSSAudioData, ptr %89, i32 0, i32 7
  %91 = load i8, ptr %90, align 8
  %92 = and i8 %91, 1
  %93 = zext i8 %92 to i32
  %94 = icmp ne i32 %93, 0
  br i1 %94, label %95, label %121

95:                                               ; preds = %67
  %96 = load ptr, ptr %6, align 8, !tbaa !26
  %97 = getelementptr inbounds nuw %struct.OSSAudioData, ptr %96, i32 0, i32 4
  %98 = load i32, ptr %97, align 4, !tbaa !47
  %99 = icmp eq i32 %98, 2
  br i1 %99, label %100, label %121

100:                                              ; preds = %95
  call void @llvm.lifetime.start.p0(i64 4, ptr %12) #5
  call void @llvm.lifetime.start.p0(i64 8, ptr %13) #5
  %101 = load ptr, ptr %5, align 8, !tbaa !49
  %102 = getelementptr inbounds nuw %struct.AVPacket, ptr %101, i32 0, i32 3
  %103 = load ptr, ptr %102, align 8, !tbaa !53
  store ptr %103, ptr %13, align 8, !tbaa !60
  store i32 0, ptr %12, align 4, !tbaa !31
  br label %104

104:                                              ; preds = %117, %100
  %105 = load i32, ptr %12, align 4, !tbaa !31
  %106 = load i32, ptr %7, align 4, !tbaa !31
  %107 = icmp slt i32 %105, %106
  br i1 %107, label %108, label %120

108:                                              ; preds = %104
  %109 = load ptr, ptr %13, align 8, !tbaa !60
  %110 = load i16, ptr %109, align 2, !tbaa !62
  %111 = sext i16 %110 to i32
  %112 = xor i32 %111, -1
  %113 = trunc i32 %112 to i16
  %114 = load ptr, ptr %13, align 8, !tbaa !60
  store i16 %113, ptr %114, align 2, !tbaa !62
  %115 = load ptr, ptr %13, align 8, !tbaa !60
  %116 = getelementptr inbounds i16, ptr %115, i64 2
  store ptr %116, ptr %13, align 8, !tbaa !60
  br label %117

117:                                              ; preds = %108
  %118 = load i32, ptr %12, align 4, !tbaa !31
  %119 = add nsw i32 %118, 4
  store i32 %119, ptr %12, align 4, !tbaa !31
  br label %104, !llvm.loop !64

120:                                              ; preds = %104
  call void @llvm.lifetime.end.p0(i64 8, ptr %13) #5
  call void @llvm.lifetime.end.p0(i64 4, ptr %12) #5
  br label %121

121:                                              ; preds = %120, %95, %67
  store i32 0, ptr %3, align 4
  store i32 1, ptr %11, align 4
  br label %122

122:                                              ; preds = %121, %50, %46, %23
  call void @llvm.lifetime.end.p0(i64 16, ptr %10) #5
  call void @llvm.lifetime.end.p0(i64 8, ptr %9) #5
  call void @llvm.lifetime.end.p0(i64 4, ptr %8) #5
  call void @llvm.lifetime.end.p0(i64 4, ptr %7) #5
  call void @llvm.lifetime.end.p0(i64 8, ptr %6) #5
  %123 = load i32, ptr %3, align 4
  ret i32 %123
}