; Function Attrs: nounwind uwtable
define internal i32 @audio_read_packet(ptr noundef readonly captures(none) %0, ptr noundef %1) #0 {
  %3 = alloca %struct.audio_buf_info, align 4
  %4 = getelementptr inbounds nuw i8, ptr %0, i64 24
  %5 = load ptr, ptr %4, align 8, !tbaa !4
  call void @llvm.lifetime.start.p0(i64 16, ptr nonnull %3) #6
  %6 = getelementptr inbounds nuw i8, ptr %5, i64 24
  %7 = load i32, ptr %6, align 8, !tbaa !42
  %8 = tail call i32 @av_new_packet(ptr noundef %1, i32 noundef %7) #6
  %9 = icmp slt i32 %8, 0
  br i1 %9, label %.loopexit, label %10

10:                                               ; preds = %2
  %11 = getelementptr inbounds nuw i8, ptr %5, i64 8
  %12 = load i32, ptr %11, align 8, !tbaa !43
  %13 = getelementptr inbounds nuw i8, ptr %1, i64 24
  %14 = load ptr, ptr %13, align 8, !tbaa !44
  %15 = getelementptr inbounds nuw i8, ptr %1, i64 32
  %16 = load i32, ptr %15, align 8, !tbaa !45
  %17 = sext i32 %16 to i64
  %18 = tail call i64 @read(i32 noundef %12, ptr noundef %14, i64 noundef %17) #6
  %19 = trunc i64 %18 to i32
  %20 = icmp slt i32 %19, 1
  br i1 %20, label %21, label %27

21:                                               ; preds = %10
  tail call void @av_packet_unref(ptr noundef nonnull %1) #6
  store i32 0, ptr %15, align 8, !tbaa !45
  %22 = icmp slt i32 %19, 0
  br i1 %22, label %23, label %.loopexit

23:                                               ; preds = %21
  %24 = tail call ptr @__errno_location() #7
  %25 = load i32, ptr %24, align 4, !tbaa !46
  %26 = sub nsw i32 0, %25
  br label %.loopexit

27:                                               ; preds = %10
  store i32 %19, ptr %15, align 8, !tbaa !45
  %28 = tail call i64 @av_gettime() #6
  %29 = load i32, ptr %11, align 8, !tbaa !43
  %30 = call i32 (i32, i64, ...) @ioctl(i32 noundef %29, i64 noundef 2148552717, ptr noundef nonnull %3) #6
  %31 = icmp eq i32 %30, 0
  %32 = getelementptr inbounds nuw i8, ptr %3, i64 12
  %33 = load i32, ptr %32, align 4
  %34 = select i1 %31, i32 %33, i32 0
  %.033 = add nsw i32 %34, %19
  %35 = sext i32 %.033 to i64
  %36 = mul nsw i64 %35, 1000000
  %37 = getelementptr inbounds nuw i8, ptr %5, i64 12
  %38 = load i32, ptr %37, align 4, !tbaa !38
  %39 = getelementptr inbounds nuw i8, ptr %5, i64 16
  %40 = load i32, ptr %39, align 8, !tbaa !47
  %41 = mul nsw i32 %40, %38
  %42 = getelementptr inbounds nuw i8, ptr %5, i64 20
  %43 = load i32, ptr %42, align 4, !tbaa !40
  %44 = mul nsw i32 %41, %43
  %45 = sext i32 %44 to i64
  %46 = sdiv i64 %36, %45
  %47 = sub nsw i64 %28, %46
  %48 = getelementptr inbounds nuw i8, ptr %1, i64 8
  store i64 %47, ptr %48, align 8, !tbaa !48
  %49 = getelementptr inbounds nuw i8, ptr %5, i64 32
  %50 = load i8, ptr %49, align 8
  %51 = and i8 %50, 1
  %.not = icmp ne i8 %51, 0
  %52 = icmp eq i32 %43, 2
  %or.cond = and i1 %52, %.not
  br i1 %or.cond, label %.lr.ph.preheader, label %.loopexit

.lr.ph.preheader:                                 ; preds = %27
  %53 = load ptr, ptr %13, align 8, !tbaa !44
  br label %.lr.ph

.lr.ph:                                           ; preds = %.lr.ph.preheader, %.lr.ph
  %.038 = phi ptr [ %56, %.lr.ph ], [ %53, %.lr.ph.preheader ]
  %.03237 = phi i32 [ %57, %.lr.ph ], [ 0, %.lr.ph.preheader ]
  %54 = load i16, ptr %.038, align 2, !tbaa !49
  %55 = xor i16 %54, -1
  store i16 %55, ptr %.038, align 2, !tbaa !49
  %56 = getelementptr inbounds nuw i8, ptr %.038, i64 4
  %57 = add nuw nsw i32 %.03237, 4
  %58 = icmp slt i32 %57, %19
  br i1 %58, label %.lr.ph, label %.loopexit, !llvm.loop !51

.loopexit:                                        ; preds = %.lr.ph, %27, %21, %2, %23
  %.034 = phi i32 [ %26, %23 ], [ %8, %2 ], [ -541478725, %21 ], [ 0, %27 ], [ 0, %.lr.ph ]
  call void @llvm.lifetime.end.p0(i64 16, ptr nonnull %3) #6
  ret i32 %.034
}